; Function Attrs: nounwind uwtable
define range(i32 0, 2) i32 @ossl_quic_rcidm_add_from_server_retry(ptr noundef captures(none) %0, ptr noundef readonly captures(none) %1) local_unnamed_addr #0 {
  %3 = getelementptr inbounds nuw i8, ptr %0, i64 136
  %4 = load i8, ptr %3, align 8
  %5 = and i8 %4, 20
  %or.cond = icmp eq i8 %5, 0
  br i1 %or.cond, label %rcidm_tick.exit, label %8

rcidm_tick.exit:                                  ; preds = %2
  %6 = getelementptr inbounds nuw i8, ptr %0, i64 42
  tail call void @llvm.memcpy.p0.p0.i64(ptr noundef nonnull align 2 dereferenceable(21) %6, ptr noundef nonnull align 1 dereferenceable(21) %1, i64 21, i1 false), !tbaa.struct !14
  %7 = or disjoint i8 %4, 16
  store i8 %7, ptr %3, align 8
  tail call fastcc void @rcidm_update(ptr noundef nonnull %0)
  br label %8

8:                                                ; preds = %2, %rcidm_tick.exit
  %.0 = phi i32 [ 1, %rcidm_tick.exit ], [ 0, %2 ]
  ret i32 %.0
}